target datalayout = "e-m:e-p270:32:32-p271:32:32-p272:64:64-i64:64-i128:128-f80:128-n8:16:32:64-S128"
target triple = "x86_64-pc-linux-gnu"

; Function Attrs: nounwind uwtable
define internal void @decode_lpc(ptr noundef %0, i32 noundef %1, i32 noundef %2) #0 {
  %4 = alloca ptr, align 8
  %5 = alloca i32, align 4
  %6 = alloca i32, align 4
  %7 = alloca i32, align 4
  %8 = alloca i32, align 4
  %9 = alloca i32, align 4
  %10 = alloca i32, align 4
  %11 = alloca i32, align 4
  %12 = alloca i32, align 4
  %13 = alloca i32, align 4
  %14 = alloca i32, align 4
  %15 = alloca i32, align 4
  %16 = alloca i32, align 4
  %17 = alloca i32, align 4
  %18 = alloca i32, align 4
  store ptr %0, ptr %4, align 8, !tbaa !41
  store i32 %1, ptr %5, align 4, !tbaa !49
  store i32 %2, ptr %6, align 4, !tbaa !49
  call void @llvm.lifetime.start.p0(i64 4, ptr %7) #9
  %19 = load i32, ptr %6, align 4, !tbaa !49
  %20 = icmp slt i32 %19, 2
  br i1 %20, label %21, label %22

21:                                               ; preds = %3
  store i32 1, ptr %8, align 4
  br label %188

22:                                               ; preds = %3
  %23 = load i32, ptr %5, align 4, !tbaa !49
  %24 = icmp eq i32 %23, 1
  br i1 %24, label %25, label %65

25:                                               ; preds = %22
  call void @llvm.lifetime.start.p0(i64 4, ptr %9) #9
  %26 = load ptr, ptr %4, align 8, !tbaa !41
  %27 = getelementptr inbounds nuw i32, ptr %26, i32 1
  store ptr %27, ptr %4, align 8, !tbaa !41
  %28 = load i32, ptr %26, align 4, !tbaa !49
  store i32 %28, ptr %9, align 4, !tbaa !49
  store i32 0, ptr %7, align 4, !tbaa !49
  br label %29

29:                                               ; preds = %51, %25
  %30 = load i32, ptr %7, align 4, !tbaa !49
  %31 = load i32, ptr %6, align 4, !tbaa !49
  %32 = sub nsw i32 %31, 1
  %33 = ashr i32 %32, 1
  %34 = icmp slt i32 %30, %33
  br i1 %34, label %35, label %54

35:                                               ; preds = %29
  %36 = load i32, ptr %9, align 4, !tbaa !49
  %37 = load ptr, ptr %4, align 8, !tbaa !41
  %38 = load i32, ptr %37, align 4, !tbaa !49
  %39 = add i32 %38, %36
  store i32 %39, ptr %37, align 4, !tbaa !49
  %40 = load ptr, ptr %4, align 8, !tbaa !41
  %41 = load i32, ptr %40, align 4, !tbaa !49
  %42 = load ptr, ptr %4, align 8, !tbaa !41
  %43 = getelementptr inbounds i32, ptr %42, i64 1
  %44 = load i32, ptr %43, align 4, !tbaa !49
  %45 = add i32 %44, %41
  store i32 %45, ptr %43, align 4, !tbaa !49
  %46 = load ptr, ptr %4, align 8, !tbaa !41
  %47 = getelementptr inbounds i32, ptr %46, i64 1
  %48 = load i32, ptr %47, align 4, !tbaa !49
  store i32 %48, ptr %9, align 4, !tbaa !49
  %49 = load ptr, ptr %4, align 8, !tbaa !41
  %50 = getelementptr inbounds i32, ptr %49, i64 2
  store ptr %50, ptr %4, align 8, !tbaa !41
  br label %51

51:                                               ; preds = %35
  %52 = load i32, ptr %7, align 4, !tbaa !49
  %53 = add nsw i32 %52, 1
  store i32 %53, ptr %7, align 4, !tbaa !49
  br label %29, !llvm.loop !118

54:                                               ; preds = %29
  %55 = load i32, ptr %6, align 4, !tbaa !49
  %56 = sub nsw i32 %55, 1
  %57 = and i32 %56, 1
  %58 = icmp ne i32 %57, 0
  br i1 %58, label %59, label %64

59:                                               ; preds = %54
  %60 = load i32, ptr %9, align 4, !tbaa !49
  %61 = load ptr, ptr %4, align 8, !tbaa !41
  %62 = load i32, ptr %61, align 4, !tbaa !49
  %63 = add i32 %62, %60
  store i32 %63, ptr %61, align 4, !tbaa !49
  br label %64

64:                                               ; preds = %59, %54
  call void @llvm.lifetime.end.p0(i64 4, ptr %9) #9
  br label %187

65:                                               ; preds = %22
  %66 = load i32, ptr %5, align 4, !tbaa !49
  %67 = icmp eq i32 %66, 2
  br i1 %67, label %68, label %129

68:                                               ; preds = %65
  call void @llvm.lifetime.start.p0(i64 4, ptr %10) #9
  %69 = load ptr, ptr %4, align 8, !tbaa !41
  %70 = getelementptr inbounds i32, ptr %69, i64 1
  %71 = load i32, ptr %70, align 4, !tbaa !49
  store i32 %71, ptr %10, align 4, !tbaa !49
  call void @llvm.lifetime.start.p0(i64 4, ptr %11) #9
  %72 = load i32, ptr %10, align 4, !tbaa !49
  %73 = load ptr, ptr %4, align 8, !tbaa !41
  %74 = load i32, ptr %73, align 4, !tbaa !49
  %75 = add i32 %72, %74
  store i32 %75, ptr %11, align 4, !tbaa !49
  %76 = load i32, ptr %11, align 4, !tbaa !49
  %77 = load ptr, ptr %4, align 8, !tbaa !41
  %78 = getelementptr inbounds i32, ptr %77, i64 1
  store i32 %76, ptr %78, align 4, !tbaa !49
  %79 = load i32, ptr %6, align 4, !tbaa !49
  %80 = icmp sgt i32 %79, 2
  br i1 %80, label %81, label %128

81:                                               ; preds = %68
  %82 = load ptr, ptr %4, align 8, !tbaa !41
  %83 = getelementptr inbounds i32, ptr %82, i64 2
  store ptr %83, ptr %4, align 8, !tbaa !41
  store i32 0, ptr %7, align 4, !tbaa !49
  br label %84

84:                                               ; preds = %113, %81
  %85 = load i32, ptr %7, align 4, !tbaa !49
  %86 = load i32, ptr %6, align 4, !tbaa !49
  %87 = sub nsw i32 %86, 2
  %88 = ashr i32 %87, 1
  %89 = icmp slt i32 %85, %88
  br i1 %89, label %90, label %116

90:                                               ; preds = %84
  call void @llvm.lifetime.start.p0(i64 4, ptr %12) #9
  %91 = load ptr, ptr %4, align 8, !tbaa !41
  %92 = load i32, ptr %91, align 4, !tbaa !49
  %93 = load i32, ptr %10, align 4, !tbaa !49
  %94 = add i32 %92, %93
  store i32 %94, ptr %12, align 4, !tbaa !49
  call void @llvm.lifetime.start.p0(i64 4, ptr %13) #9
  %95 = load i32, ptr %12, align 4, !tbaa !49
  %96 = load i32, ptr %11, align 4, !tbaa !49
  %97 = add i32 %95, %96
  store i32 %97, ptr %13, align 4, !tbaa !49
  %98 = load i32, ptr %13, align 4, !tbaa !49
  %99 = load ptr, ptr %4, align 8, !tbaa !41
  store i32 %98, ptr %99, align 4, !tbaa !49
  %100 = load ptr, ptr %4, align 8, !tbaa !41
  %101 = getelementptr inbounds i32, ptr %100, i64 1
  %102 = load i32, ptr %101, align 4, !tbaa !49
  %103 = load i32, ptr %12, align 4, !tbaa !49
  %104 = add i32 %102, %103
  store i32 %104, ptr %10, align 4, !tbaa !49
  %105 = load i32, ptr %10, align 4, !tbaa !49
  %106 = load i32, ptr %13, align 4, !tbaa !49
  %107 = add i32 %105, %106
  store i32 %107, ptr %11, align 4, !tbaa !49
  %108 = load i32, ptr %11, align 4, !tbaa !49
  %109 = load ptr, ptr %4, align 8, !tbaa !41
  %110 = getelementptr inbounds i32, ptr %109, i64 1
  store i32 %108, ptr %110, align 4, !tbaa !49
  %111 = load ptr, ptr %4, align 8, !tbaa !41
  %112 = getelementptr inbounds i32, ptr %111, i64 2
  store ptr %112, ptr %4, align 8, !tbaa !41
  call void @llvm.lifetime.end.p0(i64 4, ptr %13) #9
  call void @llvm.lifetime.end.p0(i64 4, ptr %12) #9
  br label %113

113:                                              ; preds = %90
  %114 = load i32, ptr %7, align 4, !tbaa !49
  %115 = add nsw i32 %114, 1
  store i32 %115, ptr %7, align 4, !tbaa !49
  br label %84, !llvm.loop !119

116:                                              ; preds = %84
  %117 = load i32, ptr %6, align 4, !tbaa !49
  %118 = and i32 %117, 1
  %119 = icmp ne i32 %118, 0
  br i1 %119, label %120, label %127

120:                                              ; preds = %116
  %121 = load i32, ptr %10, align 4, !tbaa !49
  %122 = load i32, ptr %11, align 4, !tbaa !49
  %123 = add i32 %121, %122
  %124 = load ptr, ptr %4, align 8, !tbaa !41
  %125 = load i32, ptr %124, align 4, !tbaa !49
  %126 = add i32 %125, %123
  store i32 %126, ptr %124, align 4, !tbaa !49
  br label %127

127:                                              ; preds = %120, %116
  br label %128

128:                                              ; preds = %127, %68
  call void @llvm.lifetime.end.p0(i64 4, ptr %11) #9
  call void @llvm.lifetime.end.p0(i64 4, ptr %10) #9
  br label %186

129:                                              ; preds = %65
  %130 = load i32, ptr %5, align 4, !tbaa !49
  %131 = icmp eq i32 %130, 3
  br i1 %131, label %132, label %185

132:                                              ; preds = %129
  call void @llvm.lifetime.start.p0(i64 4, ptr %14) #9
  %133 = load ptr, ptr %4, align 8, !tbaa !41
  %134 = getelementptr inbounds i32, ptr %133, i64 1
  %135 = load i32, ptr %134, align 4, !tbaa !49
  store i32 %135, ptr %14, align 4, !tbaa !49
  call void @llvm.lifetime.start.p0(i64 4, ptr %15) #9
  %136 = load i32, ptr %14, align 4, !tbaa !49
  %137 = load ptr, ptr %4, align 8, !tbaa !41
  %138 = load i32, ptr %137, align 4, !tbaa !49
  %139 = add i32 %136, %138
  store i32 %139, ptr %15, align 4, !tbaa !49
  %140 = load i32, ptr %15, align 4, !tbaa !49
  %141 = load ptr, ptr %4, align 8, !tbaa !41
  %142 = getelementptr inbounds i32, ptr %141, i64 1
  store i32 %140, ptr %142, align 4, !tbaa !49
  %143 = load i32, ptr %6, align 4, !tbaa !49
  %144 = icmp sgt i32 %143, 2
  br i1 %144, label %145, label %184

145:                                              ; preds = %132
  call void @llvm.lifetime.start.p0(i64 4, ptr %16) #9
  %146 = load ptr, ptr %4, align 8, !tbaa !41
  %147 = getelementptr inbounds i32, ptr %146, i64 2
  %148 = load i32, ptr %147, align 4, !tbaa !49
  store i32 %148, ptr %16, align 4, !tbaa !49
  call void @llvm.lifetime.start.p0(i64 4, ptr %17) #9
  %149 = load i32, ptr %16, align 4, !tbaa !49
  %150 = load i32, ptr %14, align 4, !tbaa !49
  %151 = add i32 %149, %150
  store i32 %151, ptr %17, align 4, !tbaa !49
  call void @llvm.lifetime.start.p0(i64 4, ptr %18) #9
  %152 = load i32, ptr %17, align 4, !tbaa !49
  %153 = load i32, ptr %15, align 4, !tbaa !49
  %154 = add i32 %152, %153
  store i32 %154, ptr %18, align 4, !tbaa !49
  %155 = load i32, ptr %18, align 4, !tbaa !49
  %156 = load ptr, ptr %4, align 8, !tbaa !41
  %157 = getelementptr inbounds i32, ptr %156, i64 2
  store i32 %155, ptr %157, align 4, !tbaa !49
  %158 = load ptr, ptr %4, align 8, !tbaa !41
  %159 = getelementptr inbounds i32, ptr %158, i64 3
  store ptr %159, ptr %4, align 8, !tbaa !41
  store i32 0, ptr %7, align 4, !tbaa !49
  br label %160

160:                                              ; preds = %180, %145
  %161 = load i32, ptr %7, align 4, !tbaa !49
  %162 = load i32, ptr %6, align 4, !tbaa !49
  %163 = sub nsw i32 %162, 3
  %164 = icmp slt i32 %161, %163
  br i1 %164, label %165, label %183

165:                                              ; preds = %160
  %166 = load ptr, ptr %4, align 8, !tbaa !41
  %167 = load i32, ptr %166, align 4, !tbaa !49
  %168 = load i32, ptr %16, align 4, !tbaa !49
  %169 = add i32 %168, %167
  store i32 %169, ptr %16, align 4, !tbaa !49
  %170 = load i32, ptr %16, align 4, !tbaa !49
  %171 = load i32, ptr %17, align 4, !tbaa !49
  %172 = add i32 %171, %170
  store i32 %172, ptr %17, align 4, !tbaa !49
  %173 = load i32, ptr %17, align 4, !tbaa !49
  %174 = load i32, ptr %18, align 4, !tbaa !49
  %175 = add i32 %174, %173
  store i32 %175, ptr %18, align 4, !tbaa !49
  %176 = load i32, ptr %18, align 4, !tbaa !49
  %177 = load ptr, ptr %4, align 8, !tbaa !41
  store i32 %176, ptr %177, align 4, !tbaa !49
  %178 = load ptr, ptr %4, align 8, !tbaa !41
  %179 = getelementptr inbounds nuw i32, ptr %178, i32 1
  store ptr %179, ptr %4, align 8, !tbaa !41
  br label %180

180:                                              ; preds = %165
  %181 = load i32, ptr %7, align 4, !tbaa !49
  %182 = add nsw i32 %181, 1
  store i32 %182, ptr %7, align 4, !tbaa !49
  br label %160, !llvm.loop !120

183:                                              ; preds = %160
  call void @llvm.lifetime.end.p0(i64 4, ptr %18) #9
  call void @llvm.lifetime.end.p0(i64 4, ptr %17) #9
  call void @llvm.lifetime.end.p0(i64 4, ptr %16) #9
  br label %184

184:                                              ; preds = %183, %132
  call void @llvm.lifetime.end.p0(i64 4, ptr %15) #9
  call void @llvm.lifetime.end.p0(i64 4, ptr %14) #9
  br label %185

185:                                              ; preds = %184, %129
  br label %186

186:                                              ; preds = %185, %128
  br label %187

187:                                              ; preds = %186, %64
  store i32 0, ptr %8, align 4
  br label %188

188:                                              ; preds = %187, %21
  call void @llvm.lifetime.end.p0(i64 4, ptr %7) #9
  %189 = load i32, ptr %8, align 4
  switch i32 %189, label %191 [
    i32 0, label %190
    i32 1, label %190
  ]

190:                                              ; preds = %188, %188
  ret void

191:                                              ; preds = %188
  unreachable
}