; Function Attrs: nofree norecurse nosync nounwind memory(argmem: readwrite) uwtable
define internal fastcc void @decode_lpc(ptr noundef captures(none) %0, i32 noundef range(i32 -2147483648, 128) %1, i32 noundef %2) unnamed_addr #8 {
  %4 = icmp slt i32 %2, 2
  br i1 %4, label %.loopexit, label %5

5:                                                ; preds = %3
  switch i32 %1, label %.loopexit [
    i32 1, label %6
    i32 2, label %21
    i32 3, label %40
  ]

6:                                                ; preds = %5
  %7 = getelementptr inbounds nuw i8, ptr %0, i64 4
  %8 = load i32, ptr %0, align 4, !tbaa !72
  %9 = add nsw i32 %2, -1
  %.not107 = icmp eq i32 %2, 2
  br i1 %.not107, label %._crit_edge102.thread, label %.lr.ph101.preheader

.lr.ph101.preheader:                              ; preds = %6
  %10 = lshr i32 %9, 1
  br label %.lr.ph101

.lr.ph101:                                        ; preds = %.lr.ph101.preheader, %.lr.ph101
  %.07199 = phi ptr [ %16, %.lr.ph101 ], [ %7, %.lr.ph101.preheader ]
  %.07298 = phi i32 [ %17, %.lr.ph101 ], [ 0, %.lr.ph101.preheader ]
  %.07597 = phi i32 [ %15, %.lr.ph101 ], [ %8, %.lr.ph101.preheader ]
  %11 = load i32, ptr %.07199, align 4, !tbaa !72
  %12 = add i32 %11, %.07597
  store i32 %12, ptr %.07199, align 4, !tbaa !72
  %13 = getelementptr inbounds nuw i8, ptr %.07199, i64 4
  %14 = load i32, ptr %13, align 4, !tbaa !72
  %15 = add i32 %14, %12
  store i32 %15, ptr %13, align 4, !tbaa !72
  %16 = getelementptr inbounds nuw i8, ptr %.07199, i64 8
  %17 = add nuw nsw i32 %.07298, 1
  %exitcond114.not = icmp eq i32 %17, %10
  br i1 %exitcond114.not, label %._crit_edge102, label %.lr.ph101, !llvm.loop !120

._crit_edge102:                                   ; preds = %.lr.ph101
  %18 = and i32 %9, 1
  %.not82 = icmp eq i32 %18, 0
  br i1 %.not82, label %.loopexit, label %._crit_edge102.thread

._crit_edge102.thread:                            ; preds = %6, %._crit_edge102
  %.071.lcssa119 = phi ptr [ %16, %._crit_edge102 ], [ %7, %6 ]
  %.075.lcssa118 = phi i32 [ %15, %._crit_edge102 ], [ %8, %6 ]
  %19 = load i32, ptr %.071.lcssa119, align 4, !tbaa !72
  %20 = add i32 %19, %.075.lcssa118
  store i32 %20, ptr %.071.lcssa119, align 4, !tbaa !72
  br label %.loopexit

21:                                               ; preds = %5
  %22 = getelementptr inbounds nuw i8, ptr %0, i64 4
  %23 = load i32, ptr %22, align 4, !tbaa !72
  %24 = load i32, ptr %0, align 4, !tbaa !72
  %25 = add i32 %24, %23
  store i32 %25, ptr %22, align 4, !tbaa !72
  %.not80 = icmp eq i32 %2, 2
  br i1 %.not80, label %.loopexit, label %.preheader

.preheader:                                       ; preds = %21
  %26 = add nsw i32 %2, -2
  %.188 = getelementptr inbounds nuw i8, ptr %0, i64 8
  %.not106 = icmp samesign ult i32 %26, 2
  br i1 %.not106, label %._crit_edge.thread, label %.lr.ph94.preheader

.lr.ph94.preheader:                               ; preds = %.preheader
  %27 = lshr i32 %26, 1
  br label %.lr.ph94

.lr.ph94:                                         ; preds = %.lr.ph94.preheader, %.lr.ph94
  %.193 = phi ptr [ %.1, %.lr.ph94 ], [ %.188, %.lr.ph94.preheader ]
  %.pn92 = phi ptr [ %.193, %.lr.ph94 ], [ %0, %.lr.ph94.preheader ]
  %.17391 = phi i32 [ %35, %.lr.ph94 ], [ 0, %.lr.ph94.preheader ]
  %.07690 = phi i32 [ %34, %.lr.ph94 ], [ %25, %.lr.ph94.preheader ]
  %.07789 = phi i32 [ %33, %.lr.ph94 ], [ %23, %.lr.ph94.preheader ]
  %28 = load i32, ptr %.193, align 4, !tbaa !72
  %29 = add i32 %28, %.07789
  %30 = add i32 %29, %.07690
  store i32 %30, ptr %.193, align 4, !tbaa !72
  %31 = getelementptr inbounds nuw i8, ptr %.pn92, i64 12
  %32 = load i32, ptr %31, align 4, !tbaa !72
  %33 = add i32 %32, %29
  %34 = add i32 %33, %30
  store i32 %34, ptr %31, align 4, !tbaa !72
  %35 = add nuw nsw i32 %.17391, 1
  %.1 = getelementptr inbounds nuw i8, ptr %.193, i64 8
  %exitcond112.not = icmp eq i32 %35, %27
  br i1 %exitcond112.not, label %._crit_edge, label %.lr.ph94, !llvm.loop !121

._crit_edge:                                      ; preds = %.lr.ph94
  %36 = and i32 %2, 1
  %.not81 = icmp eq i32 %36, 0
  br i1 %.not81, label %.loopexit, label %._crit_edge.thread

._crit_edge.thread:                               ; preds = %.preheader, %._crit_edge
  %.1.lcssa126 = phi ptr [ %.1, %._crit_edge ], [ %.188, %.preheader ]
  %.076.lcssa125 = phi i32 [ %34, %._crit_edge ], [ %25, %.preheader ]
  %.077.lcssa124 = phi i32 [ %33, %._crit_edge ], [ %23, %.preheader ]
  %37 = add i32 %.076.lcssa125, %.077.lcssa124
  %38 = load i32, ptr %.1.lcssa126, align 4, !tbaa !72
  %39 = add i32 %37, %38
  store i32 %39, ptr %.1.lcssa126, align 4, !tbaa !72
  br label %.loopexit

40:                                               ; preds = %5
  %41 = getelementptr inbounds nuw i8, ptr %0, i64 4
  %42 = load i32, ptr %41, align 4, !tbaa !72
  %43 = load i32, ptr %0, align 4, !tbaa !72
  %44 = add i32 %43, %42
  store i32 %44, ptr %41, align 4, !tbaa !72
  %.not = icmp eq i32 %2, 2
  br i1 %.not, label %.loopexit, label %45

45:                                               ; preds = %40
  %46 = getelementptr inbounds nuw i8, ptr %0, i64 8
  %47 = load i32, ptr %46, align 4, !tbaa !72
  %48 = add i32 %47, %42
  %49 = add i32 %48, %44
  store i32 %49, ptr %46, align 4, !tbaa !72
  %50 = icmp samesign ugt i32 %2, 3
  br i1 %50, label %.lr.ph.preheader, label %.loopexit

.lr.ph.preheader:                                 ; preds = %45
  %51 = getelementptr inbounds nuw i8, ptr %0, i64 12
  %52 = add nsw i32 %2, -4
  br label %.lr.ph

.lr.ph:                                           ; preds = %.lr.ph.preheader, %.lr.ph
  %.087 = phi i32 [ %56, %.lr.ph ], [ %49, %.lr.ph.preheader ]
  %.06986 = phi i32 [ %55, %.lr.ph ], [ %48, %.lr.ph.preheader ]
  %.07085 = phi i32 [ %54, %.lr.ph ], [ %47, %.lr.ph.preheader ]
  %.284 = phi ptr [ %57, %.lr.ph ], [ %51, %.lr.ph.preheader ]
  %.27483 = phi i32 [ %58, %.lr.ph ], [ 0, %.lr.ph.preheader ]
  %53 = load i32, ptr %.284, align 4, !tbaa !72
  %54 = add i32 %53, %.07085
  %55 = add i32 %54, %.06986
  %56 = add i32 %55, %.087
  store i32 %56, ptr %.284, align 4, !tbaa !72
  %57 = getelementptr inbounds nuw i8, ptr %.284, i64 4
  %58 = add nuw nsw i32 %.27483, 1
  %exitcond.not = icmp eq i32 %.27483, %52
  br i1 %exitcond.not, label %.loopexit, label %.lr.ph, !llvm.loop !122

.loopexit:                                        ; preds = %.lr.ph, %45, %._crit_edge102.thread, %._crit_edge102, %._crit_edge, %._crit_edge.thread, %21, %5, %40, %3
  ret void
}